target datalayout = "e-m:e-p270:32:32-p271:32:32-p272:64:64-i64:64-i128:128-f80:128-n8:16:32:64-S128"
target triple = "x86_64-pc-linux-gnu"

%struct.timespec = type { i64, i64 }

@.str = private unnamed_addr constant [9 x i8] c"%02d.cnf\00", align 1
@.str.1 = private unnamed_addr constant [9 x i8] c"%02d.txt\00", align 1
@.str.2 = private unnamed_addr constant [7 x i8] c"kissat\00", align 1
@.str.3 = private unnamed_addr constant [34 x i8] c"%s --seed=%d --time=%d %s %s > %s\00", align 1
@.str.4 = private unnamed_addr constant [1 x i8] zeroinitializer, align 1
@.str.5 = private unnamed_addr constant [3 x i8] c"-q\00", align 1
@.str.6 = private unnamed_addr constant [24 x i8] c"%s --seed=%d %s %s > %s\00", align 1
@.str.7 = private unnamed_addr constant [3 x i8] c"rb\00", align 1
@stdout = external global ptr, align 8
@.str.8 = private unnamed_addr constant [31 x i8] c"Command \22%s\22 did not succeed.\0A\00", align 1
@.str.9 = private unnamed_addr constant [29 x i8] c"Problem %2d has a solution. \00", align 1
@.str.10 = private unnamed_addr constant [30 x i8] c"Problem %2d has no solution. \00", align 1
@.str.11 = private unnamed_addr constant [56 x i8] c"Problem %2d has no solution or timed out after %d sec. \00", align 1
@.str.12 = private unnamed_addr constant [13 x i8] c"Solving time\00", align 1
@.str.13 = private unnamed_addr constant [61 x i8] c"(Currently waiting for %d sec for other threads to finish.)\0A\00", align 1
@.str.43 = private unnamed_addr constant [5 x i8] c"%s =\00", align 1
@.str.44 = private unnamed_addr constant [11 x i8] c"%9.2f sec\0A\00", align 1

; Function Attrs: inlinehint nounwind uwtable
define internal void @Abc_PrintTime(i32 noundef %0, ptr noundef %1, i64 noundef %2) #4 {
  %4 = alloca i32, align 4
  %5 = alloca ptr, align 8
  %6 = alloca i64, align 8
  store i32 %0, ptr %4, align 4, !tbaa !3
  store ptr %1, ptr %5, align 8, !tbaa !12
  store i64 %2, ptr %6, align 8, !tbaa !10
  %7 = load ptr, ptr %5, align 8, !tbaa !12
  call void (i32, ptr, ...) @Abc_Print(i32 noundef 1, ptr noundef @.str.43, ptr noundef %7)
  %8 = load i64, ptr %6, align 8, !tbaa !10
  %9 = sitofp i64 %8 to double
  %10 = fmul double 1.000000e+00, %9
  %11 = fdiv double %10, 1.000000e+06
  call void (i32, ptr, ...) @Abc_Print(i32 noundef 1, ptr noundef @.str.44, double noundef %11)
  ret void
}

; Function Attrs: inlinehint nounwind uwtable
define internal i64 @Abc_Clock() #4 {
  %1 = alloca i64, align 8
  %2 = alloca %struct.timespec, align 8
  %3 = alloca i32, align 4
  %4 = alloca i64, align 8
  call void @llvm.lifetime.start.p0(i64 16, ptr %2) #12
  %5 = call i32 @clock_gettime(i32 noundef 1, ptr noundef %2) #12
  %6 = icmp slt i32 %5, 0
  br i1 %6, label %7, label %8

7:                                                ; preds = %0
  store i64 -1, ptr %1, align 8
  store i32 1, ptr %3, align 4
  br label %19

8:                                                ; preds = %0
  call void @llvm.lifetime.start.p0(i64 8, ptr %4) #12
  %9 = getelementptr inbounds nuw %struct.timespec, ptr %2, i32 0, i32 0
  %10 = load i64, ptr %9, align 8, !tbaa !145
  %11 = mul nsw i64 %10, 1000000
  store i64 %11, ptr %4, align 8, !tbaa !10
  %12 = getelementptr inbounds nuw %struct.timespec, ptr %2, i32 0, i32 1
  %13 = load i64, ptr %12, align 8, !tbaa !147
  %14 = mul nsw i64 %13, 1000000
  %15 = sdiv i64 %14, 1000000000
  %16 = load i64, ptr %4, align 8, !tbaa !10
  %17 = add nsw i64 %16, %15
  store i64 %17, ptr %4, align 8, !tbaa !10
  %18 = load i64, ptr %4, align 8, !tbaa !10
  store i64 %18, ptr %1, align 8
  store i32 1, ptr %3, align 4
  call void @llvm.lifetime.end.p0(i64 8, ptr %4) #12
  br label %19

19:                                               ; preds = %8, %7
  call void @llvm.lifetime.end.p0(i64 16, ptr %2) #12
  %20 = load i64, ptr %1, align 8
  ret i64 %20
}

; Function Attrs: nounwind uwtable
define ptr @Cnf_RunSolverOnce(i32 noundef %0, i32 noundef %1, i32 noundef %2, i32 noundef %3) #0 {
  %5 = alloca ptr, align 8
  %6 = alloca i32, align 4
  %7 = alloca i32, align 4
  %8 = alloca i32, align 4
  %9 = alloca i32, align 4
  %10 = alloca i32, align 4
  %11 = alloca ptr, align 8
  %12 = alloca i64, align 8
  %13 = alloca [100 x i8], align 16
  %14 = alloca [100 x i8], align 16
  %15 = alloca ptr, align 8
  %16 = alloca [1000 x i8], align 16
  %17 = alloca ptr, align 8
  %18 = alloca ptr, align 8
  %19 = alloca i32, align 4
  %20 = alloca double, align 8
  store i32 %0, ptr %6, align 4, !tbaa !3
  store i32 %1, ptr %7, align 4, !tbaa !3
  store i32 %2, ptr %8, align 4, !tbaa !3
  store i32 %3, ptr %9, align 4, !tbaa !3
  call void @llvm.lifetime.start.p0(i64 4, ptr %10) #12
  store i32 0, ptr %10, align 4, !tbaa !3
  call void @llvm.lifetime.start.p0(i64 8, ptr %11) #12
  store ptr null, ptr %11, align 8, !tbaa !7
  call void @llvm.lifetime.start.p0(i64 8, ptr %12) #12
  %21 = call i64 @Abc_Clock()
  store i64 %21, ptr %12, align 8, !tbaa !10
  call void @llvm.lifetime.start.p0(i64 100, ptr %13) #12
  call void @llvm.lifetime.start.p0(i64 100, ptr %14) #12
  %22 = getelementptr inbounds [100 x i8], ptr %13, i64 0, i64 0
  %23 = load i32, ptr %6, align 4, !tbaa !3
  %24 = call i32 (ptr, ptr, ...) @sprintf(ptr noundef %22, ptr noundef @.str, i32 noundef %23) #12
  %25 = getelementptr inbounds [100 x i8], ptr %14, i64 0, i64 0
  %26 = load i32, ptr %6, align 4, !tbaa !3
  %27 = call i32 (ptr, ptr, ...) @sprintf(ptr noundef %25, ptr noundef @.str.1, i32 noundef %26) #12
  call void @llvm.lifetime.start.p0(i64 8, ptr %15) #12
  store ptr @.str.2, ptr %15, align 8, !tbaa !12
  call void @llvm.lifetime.start.p0(i64 1000, ptr %16) #12
  call void @llvm.lifetime.start.p0(i64 8, ptr %17) #12
  store ptr %16, ptr %17, align 8, !tbaa !12
  %28 = load i32, ptr %8, align 4, !tbaa !3
  %29 = icmp ne i32 %28, 0
  br i1 %29, label %30, label %41

30:                                               ; preds = %4
  %31 = load ptr, ptr %17, align 8, !tbaa !12
  %32 = load ptr, ptr %15, align 8, !tbaa !12
  %33 = load i32, ptr %7, align 4, !tbaa !3
  %34 = load i32, ptr %8, align 4, !tbaa !3
  %35 = load i32, ptr %10, align 4, !tbaa !3
  %36 = icmp ne i32 %35, 0
  %37 = select i1 %36, ptr @.str.4, ptr @.str.5
  %38 = getelementptr inbounds [100 x i8], ptr %13, i64 0, i64 0
  %39 = getelementptr inbounds [100 x i8], ptr %14, i64 0, i64 0
  %40 = call i32 (ptr, ptr, ...) @sprintf(ptr noundef %31, ptr noundef @.str.3, ptr noundef %32, i32 noundef %33, i32 noundef %34, ptr noundef %37, ptr noundef %38, ptr noundef %39) #12
  br label %51

41:                                               ; preds = %4
  %42 = load ptr, ptr %17, align 8, !tbaa !12
  %43 = load ptr, ptr %15, align 8, !tbaa !12
  %44 = load i32, ptr %7, align 4, !tbaa !3
  %45 = load i32, ptr %10, align 4, !tbaa !3
  %46 = icmp ne i32 %45, 0
  %47 = select i1 %46, ptr @.str.4, ptr @.str.5
  %48 = getelementptr inbounds [100 x i8], ptr %13, i64 0, i64 0
  %49 = getelementptr inbounds [100 x i8], ptr %14, i64 0, i64 0
  %50 = call i32 (ptr, ptr, ...) @sprintf(ptr noundef %42, ptr noundef @.str.6, ptr noundef %43, i32 noundef %44, ptr noundef %47, ptr noundef %48, ptr noundef %49) #12
  br label %51

51:                                               ; preds = %41, %30
  call void @llvm.lifetime.start.p0(i64 8, ptr %18) #12
  %52 = getelementptr inbounds [100 x i8], ptr %13, i64 0, i64 0
  %53 = call noalias ptr @fopen(ptr noundef %52, ptr noundef @.str.7)
  store ptr %53, ptr %18, align 8, !tbaa !14
  %54 = load ptr, ptr %18, align 8, !tbaa !14
  %55 = icmp ne ptr %54, null
  br i1 %55, label %56, label %69

56:                                               ; preds = %51
  %57 = load ptr, ptr %18, align 8, !tbaa !14
  %58 = call i32 @fclose(ptr noundef %57)
  %59 = load ptr, ptr %17, align 8, !tbaa !12
  %60 = call i32 @system(ptr noundef %59)
  %61 = icmp eq i32 %60, -1
  br i1 %61, label %62, label %66

62:                                               ; preds = %56
  %63 = load ptr, ptr @stdout, align 8, !tbaa !14
  %64 = load ptr, ptr %17, align 8, !tbaa !12
  %65 = call i32 (ptr, ptr, ...) @fprintf(ptr noundef %63, ptr noundef @.str.8, ptr noundef %64) #12
  store ptr null, ptr %5, align 8
  store i32 1, ptr %19, align 4
  br label %124

66:                                               ; preds = %56
  %67 = getelementptr inbounds [100 x i8], ptr %14, i64 0, i64 0
  %68 = call ptr @Exa4_ManParse(ptr noundef %67)
  store ptr %68, ptr %11, align 8, !tbaa !7
  br label %69

69:                                               ; preds = %66, %51
  %70 = load i32, ptr %9, align 4, !tbaa !3
  %71 = icmp ne i32 %70, 0
  br i1 %71, label %72, label %110

72:                                               ; preds = %69
  call void @llvm.lifetime.start.p0(i64 8, ptr %20) #12
  %73 = call i64 @Abc_Clock()
  %74 = load i64, ptr %12, align 8, !tbaa !10
  %75 = sub nsw i64 %73, %74
  %76 = sitofp i64 %75 to double
  %77 = fdiv double %76, 1.000000e+06
  store double %77, ptr %20, align 8, !tbaa !16
  %78 = load ptr, ptr %11, align 8, !tbaa !7
  %79 = icmp ne ptr %78, null
  br i1 %79, label %80, label %83

80:                                               ; preds = %72
  %81 = load i32, ptr %6, align 4, !tbaa !3
  %82 = call i32 (ptr, ...) @printf(ptr noundef @.str.9, i32 noundef %81)
  br label %106

83:                                               ; preds = %72
  %84 = load ptr, ptr %11, align 8, !tbaa !7
  %85 = icmp eq ptr %84, null
  br i1 %85, label %86, label %97

86:                                               ; preds = %83
  %87 = load i32, ptr %8, align 4, !tbaa !3
  %88 = icmp eq i32 %87, 0
  br i1 %88, label %94, label %89

89:                                               ; preds = %86
  %90 = load double, ptr %20, align 8, !tbaa !16
  %91 = load i32, ptr %8, align 4, !tbaa !3
  %92 = sitofp i32 %91 to double
  %93 = fcmp olt double %90, %92
  br i1 %93, label %94, label %97

94:                                               ; preds = %89, %86
  %95 = load i32, ptr %6, align 4, !tbaa !3
  %96 = call i32 (ptr, ...) @printf(ptr noundef @.str.10, i32 noundef %95)
  br label %105

97:                                               ; preds = %89, %83
  %98 = load ptr, ptr %11, align 8, !tbaa !7
  %99 = icmp eq ptr %98, null
  br i1 %99, label %100, label %104

100:                                              ; preds = %97
  %101 = load i32, ptr %6, align 4, !tbaa !3
  %102 = load i32, ptr %8, align 4, !tbaa !3
  %103 = call i32 (ptr, ...) @printf(ptr noundef @.str.11, i32 noundef %101, i32 noundef %102)
  br label %104

104:                                              ; preds = %100, %97
  br label %105

105:                                              ; preds = %104, %94
  br label %106

106:                                              ; preds = %105, %80
  %107 = call i64 @Abc_Clock()
  %108 = load i64, ptr %12, align 8, !tbaa !10
  %109 = sub nsw i64 %107, %108
  call void @Abc_PrintTime(i32 noundef 1, ptr noundef @.str.12, i64 noundef %109)
  call void @llvm.lifetime.end.p0(i64 8, ptr %20) #12
  br label %122

110:                                              ; preds = %69
  %111 = load ptr, ptr %11, align 8, !tbaa !7
  %112 = icmp ne ptr %111, null
  br i1 %112, label %113, label %121

113:                                              ; preds = %110
  %114 = load i32, ptr %6, align 4, !tbaa !3
  %115 = call i32 (ptr, ...) @printf(ptr noundef @.str.9, i32 noundef %114)
  %116 = call i64 @Abc_Clock()
  %117 = load i64, ptr %12, align 8, !tbaa !10
  %118 = sub nsw i64 %116, %117
  call void @Abc_PrintTime(i32 noundef 1, ptr noundef @.str.12, i64 noundef %118)
  %119 = load i32, ptr %8, align 4, !tbaa !3
  %120 = call i32 (ptr, ...) @printf(ptr noundef @.str.13, i32 noundef %119)
  br label %121

121:                                              ; preds = %113, %110
  br label %122

122:                                              ; preds = %121, %106
  %123 = load ptr, ptr %11, align 8, !tbaa !7
  store ptr %123, ptr %5, align 8
  store i32 1, ptr %19, align 4
  br label %124

124:                                              ; preds = %122, %62
  call void @llvm.lifetime.end.p0(i64 8, ptr %18) #12
  call void @llvm.lifetime.end.p0(i64 8, ptr %17) #12
  call void @llvm.lifetime.end.p0(i64 1000, ptr %16) #12
  call void @llvm.lifetime.end.p0(i64 8, ptr %15) #12
  call void @llvm.lifetime.end.p0(i64 100, ptr %14) #12
  call void @llvm.lifetime.end.p0(i64 100, ptr %13) #12
  call void @llvm.lifetime.end.p0(i64 8, ptr %12) #12
  call void @llvm.lifetime.end.p0(i64 8, ptr %11) #12
  call void @llvm.lifetime.end.p0(i64 4, ptr %10) #12
  %125 = load ptr, ptr %5, align 8
  ret ptr %125
}