; Function Attrs: nounwind uwtable
define ptr @Cnf_RunSolverOnce(i32 noundef %0, i32 noundef %1, i32 noundef %2, i32 noundef %3) local_unnamed_addr #0 {
  %5 = alloca %struct.timespec, align 8
  %6 = alloca %struct.timespec, align 8
  %7 = alloca %struct.timespec, align 8
  %8 = alloca %struct.timespec, align 8
  %9 = alloca [100 x i8], align 16
  %10 = alloca [100 x i8], align 16
  %11 = alloca [1000 x i8], align 16
  call void @llvm.lifetime.start.p0(i64 16, ptr nonnull %8) #22
  %12 = call i32 @clock_gettime(i32 noundef 1, ptr noundef nonnull %8) #22
  %13 = icmp slt i32 %12, 0
  br i1 %13, label %Abc_Clock.exit, label %14

14:                                               ; preds = %4
  %15 = load i64, ptr %8, align 8, !tbaa !3
  %16 = mul nsw i64 %15, 1000000
  %17 = getelementptr inbounds nuw i8, ptr %8, i64 8
  %18 = load i64, ptr %17, align 8, !tbaa !8
  %19 = sdiv i64 %18, 1000
  %20 = add nsw i64 %19, %16
  br label %Abc_Clock.exit

Abc_Clock.exit:                                   ; preds = %4, %14
  %.0.i = phi i64 [ %20, %14 ], [ -1, %4 ]
  call void @llvm.lifetime.end.p0(i64 16, ptr nonnull %8) #22
  call void @llvm.lifetime.start.p0(i64 100, ptr nonnull %9) #22
  call void @llvm.lifetime.start.p0(i64 100, ptr nonnull %10) #22
  %21 = call i32 (ptr, ptr, ...) @sprintf(ptr noundef nonnull dereferenceable(1) %9, ptr noundef nonnull dereferenceable(1) @.str, i32 noundef %0) #22
  %22 = call i32 (ptr, ptr, ...) @sprintf(ptr noundef nonnull dereferenceable(1) %10, ptr noundef nonnull dereferenceable(1) @.str.1, i32 noundef %0) #22
  call void @llvm.lifetime.start.p0(i64 1000, ptr nonnull %11) #22
  %.not = icmp eq i32 %2, 0
  br i1 %.not, label %25, label %23

23:                                               ; preds = %Abc_Clock.exit
  %24 = call i32 (ptr, ptr, ...) @sprintf(ptr noundef nonnull dereferenceable(1) %11, ptr noundef nonnull dereferenceable(1) @.str.3, ptr noundef nonnull @.str.2, i32 noundef %1, i32 noundef %2, ptr noundef nonnull @.str.5, ptr noundef nonnull %9, ptr noundef nonnull %10) #22
  br label %27

25:                                               ; preds = %Abc_Clock.exit
  %26 = call i32 (ptr, ptr, ...) @sprintf(ptr noundef nonnull dereferenceable(1) %11, ptr noundef nonnull dereferenceable(1) @.str.6, ptr noundef nonnull @.str.2, i32 noundef %1, ptr noundef nonnull @.str.5, ptr noundef nonnull %9, ptr noundef nonnull %10) #22
  br label %27

27:                                               ; preds = %25, %23
  %28 = call noalias ptr @fopen(ptr noundef nonnull %9, ptr noundef nonnull @.str.7)
  %.not37 = icmp eq ptr %28, null
  br i1 %.not37, label %.thread, label %29

29:                                               ; preds = %27
  %30 = call i32 @fclose(ptr noundef nonnull %28)
  %31 = call i32 @system(ptr noundef nonnull %11) #22
  %32 = icmp eq i32 %31, -1
  br i1 %32, label %33, label %36

33:                                               ; preds = %29
  %34 = load ptr, ptr @stdout, align 8, !tbaa !9
  %35 = call i32 (ptr, ptr, ...) @fprintf(ptr noundef %34, ptr noundef nonnull @.str.8, ptr noundef nonnull %11) #22
  br label %.thread52

36:                                               ; preds = %29
  %37 = call ptr @Exa4_ManParse(ptr noundef nonnull %10) #22
  %.not38 = icmp eq i32 %3, 0
  br i1 %.not38, label %73, label %38

.thread:                                          ; preds = %27
  %.not3849 = icmp eq i32 %3, 0
  br i1 %.not3849, label %.thread52, label %38

38:                                               ; preds = %.thread, %36
  %.03450 = phi ptr [ null, %.thread ], [ %37, %36 ]
  call void @llvm.lifetime.start.p0(i64 16, ptr nonnull %7) #22
  %39 = call i32 @clock_gettime(i32 noundef 1, ptr noundef nonnull %7) #22
  %40 = icmp slt i32 %39, 0
  br i1 %40, label %Abc_Clock.exit43, label %41

41:                                               ; preds = %38
  %42 = load i64, ptr %7, align 8, !tbaa !3
  %43 = mul nsw i64 %42, 1000000
  %44 = getelementptr inbounds nuw i8, ptr %7, i64 8
  %45 = load i64, ptr %44, align 8, !tbaa !8
  %46 = sdiv i64 %45, 1000
  %47 = add nsw i64 %46, %43
  br label %Abc_Clock.exit43

Abc_Clock.exit43:                                 ; preds = %38, %41
  %.0.i42 = phi i64 [ %47, %41 ], [ -1, %38 ]
  call void @llvm.lifetime.end.p0(i64 16, ptr nonnull %7) #22
  %.not40 = icmp eq ptr %.03450, null
  br i1 %.not40, label %50, label %48

48:                                               ; preds = %Abc_Clock.exit43
  %49 = call i32 (ptr, ...) @printf(ptr noundef nonnull dereferenceable(1) @.str.9, i32 noundef %0)
  br label %60

50:                                               ; preds = %Abc_Clock.exit43
  %51 = sub nsw i64 %.0.i42, %.0.i
  %52 = sitofp i64 %51 to double
  %53 = fdiv double %52, 1.000000e+06
  %54 = sitofp i32 %2 to double
  %55 = fcmp olt double %53, %54
  %or.cond = select i1 %.not, i1 true, i1 %55
  br i1 %or.cond, label %56, label %58

56:                                               ; preds = %50
  %57 = call i32 (ptr, ...) @printf(ptr noundef nonnull dereferenceable(1) @.str.10, i32 noundef %0)
  br label %60

58:                                               ; preds = %50
  %59 = call i32 (ptr, ...) @printf(ptr noundef nonnull dereferenceable(1) @.str.11, i32 noundef %0, i32 noundef %2)
  br label %60

60:                                               ; preds = %56, %58, %48
  call void @llvm.lifetime.start.p0(i64 16, ptr nonnull %6) #22
  %61 = call i32 @clock_gettime(i32 noundef 1, ptr noundef nonnull %6) #22
  %62 = icmp slt i32 %61, 0
  br i1 %62, label %Abc_Clock.exit45, label %63

63:                                               ; preds = %60
  %64 = load i64, ptr %6, align 8, !tbaa !3
  %65 = mul nsw i64 %64, 1000000
  %66 = getelementptr inbounds nuw i8, ptr %6, i64 8
  %67 = load i64, ptr %66, align 8, !tbaa !8
  %68 = sdiv i64 %67, 1000
  %69 = add nsw i64 %68, %65
  br label %Abc_Clock.exit45

Abc_Clock.exit45:                                 ; preds = %60, %63
  %.0.i44 = phi i64 [ %69, %63 ], [ -1, %60 ]
  call void @llvm.lifetime.end.p0(i64 16, ptr nonnull %6) #22
  %70 = sub nsw i64 %.0.i44, %.0.i
  call void (i32, ptr, ...) @Abc_Print(i32 poison, ptr noundef nonnull @.str.43, ptr noundef nonnull @.str.12)
  %71 = sitofp i64 %70 to double
  %72 = fdiv double %71, 1.000000e+06
  call void (i32, ptr, ...) @Abc_Print(i32 poison, ptr noundef nonnull @.str.44, double noundef %72)
  br label %.thread52

73:                                               ; preds = %36
  %.not39 = icmp eq ptr %37, null
  br i1 %.not39, label %.thread52, label %74

74:                                               ; preds = %73
  %75 = call i32 (ptr, ...) @printf(ptr noundef nonnull dereferenceable(1) @.str.9, i32 noundef %0)
  call void @llvm.lifetime.start.p0(i64 16, ptr nonnull %5) #22
  %76 = call i32 @clock_gettime(i32 noundef 1, ptr noundef nonnull %5) #22
  %77 = icmp slt i32 %76, 0
  br i1 %77, label %Abc_Clock.exit47, label %78

78:                                               ; preds = %74
  %79 = load i64, ptr %5, align 8, !tbaa !3
  %80 = mul nsw i64 %79, 1000000
  %81 = getelementptr inbounds nuw i8, ptr %5, i64 8
  %82 = load i64, ptr %81, align 8, !tbaa !8
  %83 = sdiv i64 %82, 1000
  %84 = add nsw i64 %83, %80
  br label %Abc_Clock.exit47

Abc_Clock.exit47:                                 ; preds = %74, %78
  %.0.i46 = phi i64 [ %84, %78 ], [ -1, %74 ]
  call void @llvm.lifetime.end.p0(i64 16, ptr nonnull %5) #22
  %85 = sub nsw i64 %.0.i46, %.0.i
  call void (i32, ptr, ...) @Abc_Print(i32 poison, ptr noundef nonnull @.str.43, ptr noundef nonnull @.str.12)
  %86 = sitofp i64 %85 to double
  %87 = fdiv double %86, 1.000000e+06
  call void (i32, ptr, ...) @Abc_Print(i32 poison, ptr noundef nonnull @.str.44, double noundef %87)
  %88 = call i32 (ptr, ...) @printf(ptr noundef nonnull dereferenceable(1) @.str.13, i32 noundef %2)
  br label %.thread52

.thread52:                                        ; preds = %.thread, %Abc_Clock.exit45, %Abc_Clock.exit47, %73, %33
  %.0 = phi ptr [ null, %33 ], [ null, %73 ], [ %37, %Abc_Clock.exit47 ], [ %.03450, %Abc_Clock.exit45 ], [ null, %.thread ]
  call void @llvm.lifetime.end.p0(i64 1000, ptr nonnull %11) #22
  call void @llvm.lifetime.end.p0(i64 100, ptr nonnull %10) #22
  call void @llvm.lifetime.end.p0(i64 100, ptr nonnull %9) #22
  ret ptr %.0
}